target datalayout = "e-m:e-p270:32:32-p271:32:32-p272:64:64-i64:64-i128:128-f80:128-n8:16:32:64-S128"
target triple = "x86_64-pc-linux-gnu"

%struct.Map_TimeStruct_t_ = type { float, float, float }
%struct.Map_SuperStruct_t_ = type { i32, i32, [4 x i8], i32, [6 x ptr], ptr, [2 x i32], [6 x %struct.Map_TimeStruct_t_], [6 x %struct.Map_TimeStruct_t_], %struct.Map_TimeStruct_t_, float, ptr, ptr }

; Function Attrs: nounwind uwtable
define internal i32 @Map_LibraryGetMaxSuperPi_rec(ptr noundef %0) #0 {
  %2 = alloca i32, align 4
  %3 = alloca ptr, align 8
  %4 = alloca i32, align 4
  %5 = alloca i32, align 4
  %6 = alloca i32, align 4
  %7 = alloca i32, align 4
  store ptr %0, ptr %3, align 8, !tbaa !23
  call void @llvm.lifetime.start.p0(i64 4, ptr %4) #9
  call void @llvm.lifetime.start.p0(i64 4, ptr %5) #9
  call void @llvm.lifetime.start.p0(i64 4, ptr %6) #9
  store i32 0, ptr %6, align 4, !tbaa !10
  %8 = load ptr, ptr %3, align 8, !tbaa !23
  %9 = getelementptr inbounds nuw %struct.Map_SuperStruct_t_, ptr %8, i32 0, i32 5
  %10 = load ptr, ptr %9, align 8, !tbaa !28
  %11 = icmp eq ptr %10, null
  br i1 %11, label %12, label %16

12:                                               ; preds = %1
  %13 = load ptr, ptr %3, align 8, !tbaa !23
  %14 = getelementptr inbounds nuw %struct.Map_SuperStruct_t_, ptr %13, i32 0, i32 0
  %15 = load i32, ptr %14, align 8, !tbaa !24
  store i32 %15, ptr %2, align 4
  store i32 1, ptr %7, align 4
  br label %44

16:                                               ; preds = %1
  store i32 0, ptr %4, align 4, !tbaa !10
  br label %17

17:                                               ; preds = %39, %16
  %18 = load i32, ptr %4, align 4, !tbaa !10
  %19 = load ptr, ptr %3, align 8, !tbaa !23
  %20 = getelementptr inbounds nuw %struct.Map_SuperStruct_t_, ptr %19, i32 0, i32 1
  %21 = load i32, ptr %20, align 4
  %22 = lshr i32 %21, 2
  %23 = and i32 %22, 7
  %24 = icmp slt i32 %18, %23
  br i1 %24, label %25, label %42

25:                                               ; preds = %17
  %26 = load ptr, ptr %3, align 8, !tbaa !23
  %27 = getelementptr inbounds nuw %struct.Map_SuperStruct_t_, ptr %26, i32 0, i32 4
  %28 = load i32, ptr %4, align 4, !tbaa !10
  %29 = sext i32 %28 to i64
  %30 = getelementptr inbounds [6 x ptr], ptr %27, i64 0, i64 %29
  %31 = load ptr, ptr %30, align 8, !tbaa !23
  %32 = call i32 @Map_LibraryGetMaxSuperPi_rec(ptr noundef %31)
  store i32 %32, ptr %5, align 4, !tbaa !10
  %33 = load i32, ptr %6, align 4, !tbaa !10
  %34 = load i32, ptr %5, align 4, !tbaa !10
  %35 = icmp slt i32 %33, %34
  br i1 %35, label %36, label %38

36:                                               ; preds = %25
  %37 = load i32, ptr %5, align 4, !tbaa !10
  store i32 %37, ptr %6, align 4, !tbaa !10
  br label %38

38:                                               ; preds = %36, %25
  br label %39

39:                                               ; preds = %38
  %40 = load i32, ptr %4, align 4, !tbaa !10
  %41 = add nsw i32 %40, 1
  store i32 %41, ptr %4, align 4, !tbaa !10
  br label %17, !llvm.loop !86

42:                                               ; preds = %17
  %43 = load i32, ptr %6, align 4, !tbaa !10
  store i32 %43, ptr %2, align 4
  store i32 1, ptr %7, align 4
  br label %44

44:                                               ; preds = %42, %12
  call void @llvm.lifetime.end.p0(i64 4, ptr %6) #9
  call void @llvm.lifetime.end.p0(i64 4, ptr %5) #9
  call void @llvm.lifetime.end.p0(i64 4, ptr %4) #9
  %45 = load i32, ptr %2, align 4
  ret i32 %45
}