; Function Attrs: nofree nosync nounwind memory(read, inaccessiblemem: none) uwtable
define internal fastcc i32 @Map_LibraryGetMaxSuperPi_rec(ptr noundef readonly captures(none) %0) unnamed_addr #11 {
  %2 = getelementptr inbounds nuw i8, ptr %0, i64 64
  %3 = load ptr, ptr %2, align 8, !tbaa !23
  %4 = icmp eq ptr %3, null
  br i1 %4, label %10, label %.preheader

.preheader:                                       ; preds = %1
  %5 = getelementptr inbounds nuw i8, ptr %0, i64 4
  %6 = load i32, ptr %5, align 4
  %7 = lshr i32 %6, 2
  %8 = and i32 %7, 7
  %.not = icmp eq i32 %8, 0
  br i1 %.not, label %.loopexit, label %.lr.ph

.lr.ph:                                           ; preds = %.preheader
  %9 = getelementptr inbounds nuw i8, ptr %0, i64 16
  %wide.trip.count = zext nneg i32 %8 to i64
  br label %12

10:                                               ; preds = %1
  %11 = load i32, ptr %0, align 8, !tbaa !19
  br label %.loopexit

12:                                               ; preds = %.lr.ph, %12
  %indvars.iv = phi i64 [ 0, %.lr.ph ], [ %indvars.iv.next, %12 ]
  %.015 = phi i32 [ 0, %.lr.ph ], [ %spec.select, %12 ]
  %13 = getelementptr inbounds nuw [6 x ptr], ptr %9, i64 0, i64 %indvars.iv
  %14 = load ptr, ptr %13, align 8, !tbaa !27
  %15 = tail call fastcc i32 @Map_LibraryGetMaxSuperPi_rec(ptr noundef %14)
  %spec.select = tail call i32 @llvm.smax.i32(i32 %.015, i32 %15)
  %indvars.iv.next = add nuw nsw i64 %indvars.iv, 1
  %exitcond.not = icmp eq i64 %indvars.iv.next, %wide.trip.count
  br i1 %exitcond.not, label %.loopexit, label %12, !llvm.loop !67

.loopexit:                                        ; preds = %12, %.preheader, %10
  %.011 = phi i32 [ %11, %10 ], [ 0, %.preheader ], [ %spec.select, %12 ]
  ret i32 %.011
}